target datalayout = "e-m:e-p270:32:32-p271:32:32-p272:64:64-i64:64-i128:128-f80:128-n8:16:32:64-S128"
target triple = "x86_64-pc-linux-gnu"

%struct.SDL_HIDAPI_Device = type { ptr, ptr, ptr, ptr, i16, i16, i16, ptr, %struct.SDL_GUID, i32, i32, i32, i32, i16, i16, i8, i32, i32, i32, ptr, ptr, ptr, ptr, %struct.SDL_AtomicInt, i32, ptr, i8, i8, i8, ptr, i32, ptr, ptr }
%struct.SDL_GUID = type { [16 x i8] }
%struct.SDL_AtomicInt = type { i32 }
%struct.SDL_DriverPS3_Context = type { ptr, ptr, i8, i8, i8, i8, i32, i8, i8, [64 x i8] }

@.str.8 = private unnamed_addr constant [28 x i8] c"Couldn't send rumble packet\00", align 1
@__const.HIDAPI_DriverPS3_UpdateRumbleSonySixaxis.effects = private unnamed_addr constant [9 x i8] c"\00\02\00\00\00\FF\00\FF\00", align 1

; Function Attrs: nounwind uwtable
define internal zeroext i1 @HIDAPI_DriverPS3SonySixaxis_SendJoystickEffect(ptr noundef %0, ptr noundef %1, ptr noundef %2, i32 noundef %3) #0 {
  %5 = alloca i1, align 1
  %6 = alloca ptr, align 8
  %7 = alloca ptr, align 8
  %8 = alloca ptr, align 8
  %9 = alloca i32, align 4
  %10 = alloca [49 x i8], align 16
  %11 = alloca i32, align 4
  %12 = alloca i32, align 4
  store ptr %0, ptr %6, align 8
  store ptr %1, ptr %7, align 8
  store ptr %2, ptr %8, align 8
  store i32 %3, ptr %9, align 4
  call void @llvm.lifetime.start.p0(i64 49, ptr %10) #7
  call void @llvm.lifetime.start.p0(i64 4, ptr %11) #7
  %13 = getelementptr inbounds [49 x i8], ptr %10, i64 0, i64 0
  call void @llvm.memset.p0.i64(ptr align 16 %13, i8 0, i64 49, i1 false)
  %14 = getelementptr inbounds [49 x i8], ptr %10, i64 0, i64 0
  store i8 0, ptr %14, align 16
  store i32 49, ptr %11, align 4
  %15 = load ptr, ptr %8, align 8
  %16 = load i32, ptr %9, align 4
  %17 = sext i32 %16 to i64
  %18 = icmp ult i64 49, %17
  br i1 %18, label %19, label %20

19:                                               ; preds = %4
  br label %23

20:                                               ; preds = %4
  %21 = load i32, ptr %9, align 4
  %22 = sext i32 %21 to i64
  br label %23

23:                                               ; preds = %20, %19
  %24 = phi i64 [ 49, %19 ], [ %22, %20 ]
  call void @llvm.memcpy.p0.p0.i64(ptr align 16 %10, ptr align 1 %15, i64 %24, i1 false)
  %25 = load ptr, ptr %6, align 8
  %26 = getelementptr inbounds [49 x i8], ptr %10, i64 0, i64 0
  %27 = load i32, ptr %11, align 4
  %28 = call i32 @SDL_HIDAPI_SendRumble(ptr noundef %25, ptr noundef %26, i32 noundef %27)
  %29 = load i32, ptr %11, align 4
  %30 = icmp ne i32 %28, %29
  br i1 %30, label %31, label %33

31:                                               ; preds = %23
  %32 = call zeroext i1 (ptr, ...) @SDL_SetError_REAL(ptr noundef @.str.8)
  store i1 %32, ptr %5, align 1
  store i32 1, ptr %12, align 4
  br label %34

33:                                               ; preds = %23
  store i1 true, ptr %5, align 1
  store i32 1, ptr %12, align 4
  br label %34

34:                                               ; preds = %33, %31
  call void @llvm.lifetime.end.p0(i64 4, ptr %11) #7
  call void @llvm.lifetime.end.p0(i64 49, ptr %10) #7
  %35 = load i1, ptr %5, align 1
  ret i1 %35
}

; Function Attrs: nounwind uwtable
define internal zeroext i1 @HIDAPI_DriverPS3_UpdateRumbleSonySixaxis(ptr noundef %0) #0 {
  %2 = alloca ptr, align 8
  %3 = alloca ptr, align 8
  %4 = alloca [9 x i8], align 1
  store ptr %0, ptr %2, align 8
  call void @llvm.lifetime.start.p0(i64 8, ptr %3) #7
  %5 = load ptr, ptr %2, align 8
  %6 = getelementptr inbounds nuw %struct.SDL_HIDAPI_Device, ptr %5, i32 0, i32 20
  %7 = load ptr, ptr %6, align 8
  store ptr %7, ptr %3, align 8
  call void @llvm.lifetime.start.p0(i64 9, ptr %4) #7
  call void @llvm.memcpy.p0.p0.i64(ptr align 1 %4, ptr align 1 @__const.HIDAPI_DriverPS3_UpdateRumbleSonySixaxis.effects, i64 9, i1 false)
  %8 = load ptr, ptr %3, align 8
  %9 = getelementptr inbounds nuw %struct.SDL_DriverPS3_Context, ptr %8, i32 0, i32 8
  %10 = load i8, ptr %9, align 1
  %11 = zext i8 %10 to i32
  %12 = icmp ne i32 %11, 0
  %13 = select i1 %12, i32 1, i32 0
  %14 = trunc i32 %13 to i8
  %15 = getelementptr inbounds [9 x i8], ptr %4, i64 0, i64 6
  store i8 %14, ptr %15, align 1
  %16 = load ptr, ptr %3, align 8
  %17 = getelementptr inbounds nuw %struct.SDL_DriverPS3_Context, ptr %16, i32 0, i32 7
  %18 = load i8, ptr %17, align 8
  %19 = getelementptr inbounds [9 x i8], ptr %4, i64 0, i64 8
  store i8 %18, ptr %19, align 1
  %20 = load ptr, ptr %2, align 8
  %21 = load ptr, ptr %3, align 8
  %22 = getelementptr inbounds nuw %struct.SDL_DriverPS3_Context, ptr %21, i32 0, i32 1
  %23 = load ptr, ptr %22, align 8
  %24 = getelementptr inbounds [9 x i8], ptr %4, i64 0, i64 0
  %25 = call zeroext i1 @HIDAPI_DriverPS3SonySixaxis_SendJoystickEffect(ptr noundef %20, ptr noundef %23, ptr noundef %24, i32 noundef 9)
  call void @llvm.lifetime.end.p0(i64 9, ptr %4) #7
  call void @llvm.lifetime.end.p0(i64 8, ptr %3) #7
  ret i1 %25
}

; Function Attrs: nounwind uwtable
define internal zeroext i1 @HIDAPI_DriverPS3SonySixaxis_RumbleJoystick(ptr noundef %0, ptr noundef %1, i16 noundef zeroext %2, i16 noundef zeroext %3) #0 {
  %5 = alloca ptr, align 8
  %6 = alloca ptr, align 8
  %7 = alloca i16, align 2
  %8 = alloca i16, align 2
  %9 = alloca ptr, align 8
  store ptr %0, ptr %5, align 8
  store ptr %1, ptr %6, align 8
  store i16 %2, ptr %7, align 2
  store i16 %3, ptr %8, align 2
  call void @llvm.lifetime.start.p0(i64 8, ptr %9) #7
  %10 = load ptr, ptr %5, align 8
  %11 = getelementptr inbounds nuw %struct.SDL_HIDAPI_Device, ptr %10, i32 0, i32 20
  %12 = load ptr, ptr %11, align 8
  store ptr %12, ptr %9, align 8
  %13 = load i16, ptr %7, align 2
  %14 = zext i16 %13 to i32
  %15 = ashr i32 %14, 8
  %16 = trunc i32 %15 to i8
  %17 = load ptr, ptr %9, align 8
  %18 = getelementptr inbounds nuw %struct.SDL_DriverPS3_Context, ptr %17, i32 0, i32 7
  store i8 %16, ptr %18, align 8
  %19 = load i16, ptr %8, align 2
  %20 = zext i16 %19 to i32
  %21 = ashr i32 %20, 8
  %22 = trunc i32 %21 to i8
  %23 = load ptr, ptr %9, align 8
  %24 = getelementptr inbounds nuw %struct.SDL_DriverPS3_Context, ptr %23, i32 0, i32 8
  store i8 %22, ptr %24, align 1
  %25 = load ptr, ptr %5, align 8
  %26 = call zeroext i1 @HIDAPI_DriverPS3_UpdateRumbleSonySixaxis(ptr noundef %25)
  call void @llvm.lifetime.end.p0(i64 8, ptr %9) #7
  ret i1 %26
}