; Function Attrs: nounwind uwtable
define internal zeroext i1 @HIDAPI_DriverPS3SonySixaxis_RumbleJoystick(ptr noundef %0, ptr readnone captures(none) %1, i16 noundef zeroext %2, i16 noundef zeroext %3) #0 {
  %5 = alloca [49 x i8], align 16
  %6 = getelementptr inbounds nuw i8, ptr %0, i64 112
  %7 = load ptr, ptr %6, align 8
  %8 = lshr i16 %2, 8
  %9 = trunc nuw i16 %8 to i8
  %10 = getelementptr inbounds nuw i8, ptr %7, i64 24
  store i8 %9, ptr %10, align 8
  %11 = lshr i16 %3, 8
  %12 = trunc nuw i16 %11 to i8
  %13 = getelementptr inbounds nuw i8, ptr %7, i64 25
  store i8 %12, ptr %13, align 1
  %14 = load ptr, ptr %6, align 8
  %15 = getelementptr inbounds nuw i8, ptr %14, i64 25
  %16 = load i8, ptr %15, align 1
  %.not.i = icmp ne i8 %16, 0
  %17 = zext i1 %.not.i to i8
  %18 = getelementptr inbounds nuw i8, ptr %14, i64 24
  %19 = load i8, ptr %18, align 8
  call void @llvm.lifetime.start.p0(i64 49, ptr nonnull %5) #10
  %20 = getelementptr inbounds nuw i8, ptr %5, i64 8
  call void @llvm.memset.p0.i64(ptr noundef nonnull align 8 dereferenceable(41) %20, i8 0, i64 41, i1 false)
  call void @llvm.memcpy.p0.p0.i64(ptr noundef nonnull align 16 dereferenceable(6) %5, ptr noundef nonnull align 1 dereferenceable(6) @__const.HIDAPI_DriverPS3_UpdateRumbleSonySixaxis.effects, i64 6, i1 false)
  %.sroa.4.0..sroa_idx.i = getelementptr inbounds nuw i8, ptr %5, i64 6
  store i8 %17, ptr %.sroa.4.0..sroa_idx.i, align 2
  %.sroa.5.0..sroa_idx.i = getelementptr inbounds nuw i8, ptr %5, i64 7
  store i8 -1, ptr %.sroa.5.0..sroa_idx.i, align 1
  store i8 %19, ptr %20, align 8
  %21 = call i32 @SDL_HIDAPI_SendRumble(ptr noundef %0, ptr noundef nonnull %5, i32 noundef 49) #10
  %.not.i.i = icmp eq i32 %21, 49
  br i1 %.not.i.i, label %HIDAPI_DriverPS3_UpdateRumbleSonySixaxis.exit, label %22

22:                                               ; preds = %4
  %23 = call zeroext i1 (ptr, ...) @SDL_SetError_REAL(ptr noundef nonnull @.str.8) #10
  br label %HIDAPI_DriverPS3_UpdateRumbleSonySixaxis.exit

HIDAPI_DriverPS3_UpdateRumbleSonySixaxis.exit:    ; preds = %4, %22
  %.0.i.i = phi i1 [ %23, %22 ], [ true, %4 ]
  call void @llvm.lifetime.end.p0(i64 49, ptr nonnull %5) #10
  ret i1 %.0.i.i
}